Certificate:
    Data:
        Version: 3 (0x2)
        Serial Number:
            19:5d:b6:38:88:fd:82:54:17:0a:50:c3:f1:14:99:6c
    Signature Algorithm: sha256WithRSAEncryption
        Issuer: CN=Easy-RSA CA
        Validity
            Not Before: Mar 29 15:25:53 2018 GMT
            Not After : Mar 26 15:25:53 2028 GMT
        Subject: CN=hades
        Subject Public Key Info:
            Public Key Algorithm: rsaEncryption
                Public-Key: (2048 bit)
                Modulus:
                    00:d9:7a:fb:27:98:16:5f:10:a4:4f:fc:fa:1a:e2:
                    aa:61:e8:ed:8d:05:74:41:f5:82:2f:a5:f9:0e:e7:
                    3c:1c:89:66:5c:3d:5e:d4:87:2b:b0:48:dd:97:b8:
                    f3:12:18:70:d0:2f:d8:23:ce:9d:06:96:5d:7f:d7:
                    c2:a3:c6:55:9b:87:82:62:fd:52:08:52:0c:a1:cb:
                    7a:5b:9b:8d:e7:12:34:ad:2d:9e:70:86:04:0a:1a:
                    9b:fb:b1:4a:54:ab:3f:a4:5f:8d:41:be:52:57:a2:
                    6d:24:f4:e9:78:75:af:94:c6:59:fd:df:bd:30:9e:
                    ca:f5:0f:6e:17:18:ea:1c:bf:5e:19:e1:7c:80:da:
                    92:ac:ac:a7:b2:2b:7f:4b:ba:1a:78:3e:a1:7a:30:
                    db:bb:f0:c1:0d:49:41:ee:37:f9:ee:e3:0d:8b:8e:
                    29:7b:81:6d:e6:9f:6f:68:c1:36:c1:6e:63:5b:a3:
                    28:1c:5b:9e:20:70:39:f0:23:23:aa:c1:d7:ff:ca:
                    64:f7:01:fc:ab:05:00:fe:b6:f8:37:a0:c1:9c:1a:
                    0c:70:32:1f:5d:be:ee:78:1d:f9:80:02:95:d6:bc:
                    bd:f0:26:b2:c4:b2:40:38:9d:b0:fe:9b:c9:33:52:
                    a9:ef:7f:1f:56:42:97:97:f5:26:d8:7b:59:f6:4e:
                    60:6d
                Exponent: 65537 (0x10001)
        X509v3 extensions:
            X509v3 Basic Constraints: 
                CA:FALSE
            X509v3 Subject Key Identifier: 
                89:B0:24:66:9A:47:FA:FC:6F:43:6D:73:2C:84:84:0F:E6:30:C6:8A
            X509v3 Authority Key Identifier: 
                keyid:96:27:C5:04:FE:9C:50:E6:EE:CC:5F:60:94:5F:8F:C8:DA:88:20:69
                DirName:/CN=Easy-RSA CA
                serial:E9:C1:05:9E:9F:64:26:B8

            X509v3 Extended Key Usage: 
                TLS Web Client Authentication
            X509v3 Key Usage: 
                Digital Signature
    Signature Algorithm: sha256WithRSAEncryption
         ae:67:e1:76:a4:f0:5f:0a:47:95:5d:39:db:b7:71:5e:e3:23:
         a2:d2:02:e2:a1:7c:53:9b:26:23:90:72:cd:34:8e:20:33:17:
         a0:b7:51:9d:6d:ec:d5:aa:c0:e1:2a:7e:9f:0b:b8:ec:42:71:
         c6:88:78:c7:08:9a:46:1a:81:fd:5f:76:61:c5:fd:ec:14:9c:
         65:37:c7:68:47:36:ca:d5:4e:3c:99:22:39:94:e9:ff:24:f1:
         ad:c3:37:de:42:43:a8:da:40:9e:30:d7:35:9a:88:c4:f3:c1:
         4e:e2:20:df:2a:49:1b:da:75:43:8b:cb:df:af:7e:24:de:c9:
         64:11:4c:a8:b7:77:4a:f6:2d:4f:bc:51:c7:c2:58:fa:bd:87:
         d2:3f:41:14:31:be:b9:8e:31:60:83:b4:14:ae:58:f0:52:98:
         2c:70:ac:a1:30:da:1c:68:c7:8c:68:89:a8:ca:2d:3b:c6:3b:
         9f:c9:3e:6e:c8:9e:dc:9c:9d:01:c1:8a:4f:9b:d4:f9:fe:1d:
         c6:93:3c:d3:c2:6d:ac:59:25:91:4d:9d:b3:3a:71:10:07:08:
         ba:cd:d2:ea:0c:5b:d2:db:6a:cc:f3:c7:9d:e5:18:0b:75:b1:
         aa:3b:fa:53:eb:f2:a3:a4:d6:70:55:0d:04:1c:7d:74:26:45:
         d0:a3:ed:a3
-----BEGIN CERTIFICATE-----
MIIDSDCCAjCgAwIBAgIQGV22OIj9glQXClDD8RSZbDANBgkqhkiG9w0BAQsFADAW
MRQwEgYDVQQDDAtFYXN5LVJTQSBDQTAeFw0xODAzMjkxNTI1NTNaFw0yODAzMjYx
NTI1NTNaMBAxDjAMBgNVBAMMBWhhZGVzMIIBIjANBgkqhkiG9w0BAQEFAAOCAQ8A
MIIBCgKCAQEA2Xr7J5gWXxCkT/z6GuKqYejtjQV0QfWCL6X5Duc8HIlmXD1e1Icr
sEjdl7jzEhhw0C/YI86dBpZdf9fCo8ZVm4eCYv1SCFIMoct6W5uN5xI0rS2ecIYE
Chqb+7FKVKs/pF+NQb5SV6JtJPTpeHWvlMZZ/d+9MJ7K9Q9uFxjqHL9eGeF8gNqS
rKynsit/S7oaeD6hejDbu/DBDUlB7jf57uMNi44pe4Ft5p9vaME2wW5jW6MoHFue
IHA58CMjqsHX/8pk9wH8qwUA/rb4N6DBnBoMcDIfXb7ueB35gAKV1ry98CayxLJA
OJ2w/pvJM1Kp738fVkKXl/Um2HtZ9k5gbQIDAQABo4GXMIGUMAkGA1UdEwQCMAAw
HQYDVR0OBBYEFImwJGaaR/r8b0NtcyyEhA/mMMaKMEYGA1UdIwQ/MD2AFJYnxQT+
nFDm7sxfYJRfj8jaiCBpoRqkGDAWMRQwEgYDVQQDDAtFYXN5LVJTQSBDQYIJAOnB
BZ6fZCa4MBMGA1UdJQQMMAoGCCsGAQUFBwMCMAsGA1UdDwQEAwIHgDANBgkqhkiG
9w0BAQsFAAOCAQEArmfhdqTwXwpHlV0527dxXuMjotIC4qF8U5smI5ByzTSOIDMX
oLdRnW3s1arA4Sp+nwu47EJxxoh4xwiaRhqB/V92YcX97BScZTfHaEc2ytVOPJki
OZTp/yTxrcM33kJDqNpAnjDXNZqIxPPBTuIg3ypJG9p1Q4vL369+JN7JZBFMqLd3
SvYtT7xRx8JY+r2H0j9BFDG+uY4xYIO0FK5Y8FKYLHCsoTDaHGjHjGiJqMotO8Y7
n8k+bsie3JydAcGKT5vU+f4dxpM808JtrFklkU2dszpxEAcIus3S6gxb0ttqzPPH
neUYC3Wxqjv6U+vyo6TWcFUNBBx9dCZF0KPtow==
-----END CERTIFICATE-----
